ARM GAS  C:\Users\z004c8dn\AppData\Local\Temp\cchlWGvh.s 			page 1


   1              		.syntax unified
   2              		.cpu cortex-m3
   3              		.fpu softvfp
   4              		.eabi_attribute 20, 1
   5              		.eabi_attribute 21, 1
   6              		.eabi_attribute 23, 3
   7              		.eabi_attribute 24, 1
   8              		.eabi_attribute 25, 1
   9              		.eabi_attribute 26, 1
  10              		.eabi_attribute 30, 6
  11              		.eabi_attribute 34, 1
  12              		.eabi_attribute 18, 4
  13              		.thumb
  14              		.syntax unified
  15              		.file	"main.c"
  16              		.text
  17              	.Ltext0:
  18              		.cfi_sections	.debug_frame
  19              		.global	gInputSum
  20              		.bss
  21              		.align	3
  22              		.type	gInputSum, %object
  23              		.size	gInputSum, 8
  24              	gInputSum:
  25 0000 00000000 		.space	8
  25      00000000 
  26              		.global	gAverageData
  27              		.align	2
  28              		.type	gAverageData, %object
  29              		.size	gAverageData, 4
  30              	gAverageData:
  31 0008 00000000 		.space	4
  32              		.global	gSendAverage
  33              		.type	gSendAverage, %object
  34              		.size	gSendAverage, 1
  35              	gSendAverage:
  36 000c 00       		.space	1
  37              		.section	.rodata
  38              		.align	2
  39              	.LC0:
  40 0000 434F4D20 		.ascii	"COM Port Open\015\012\000"
  40      506F7274 
  40      204F7065 
  40      6E0D0A00 
  41              		.align	2
  42              	.LC1:
  43 0010 7B0A2256 		.ascii	"{\012\"Voltage [mV]\" : %lu,\015\012 \"Temperature "
  43      6F6C7461 
  43      6765205B 
  43      6D565D22 
  43      203A2025 
  44 0037 5B435D22 		.ascii	"[C]\" : %hu.%hu \015\012}\015\012\000"
  44      203A2025 
  44      68752E25 
  44      6875200D 
  44      0A7D0D0A 
  45              		.section	.text.main,"ax",%progbits
ARM GAS  C:\Users\z004c8dn\AppData\Local\Temp\cchlWGvh.s 			page 2


  46              		.align	2
  47              		.global	main
  48              		.thumb
  49              		.thumb_func
  50              		.type	main, %function
  51              	main:
  52              	.LFB64:
  53              		.file 1 "main.c"
   1:main.c        **** /******************************************************************************
   2:main.c        **** * File Name: main.c
   3:main.c        **** *
   4:main.c        **** * Version: 1.11
   5:main.c        **** *
   6:main.c        **** * Description: This is the source code for the ADC and UART code example.
   7:main.c        **** *
   8:main.c        **** * Related Document: CE195277_ADC_and_UART.pdf
   9:main.c        **** *
  10:main.c        **** * Hardware Dependency: See CE195277_ADC_and_UART.pdf
  11:main.c        **** *
  12:main.c        **** * Note:
  13:main.c        **** * EDITED BY: Andreas BOTH
  14:main.c        **** * DATE: 2024-04-16
  15:main.c        **** * COURSE ID:tx00db04
  16:main.c        **** * DESCRIPTION:  changed the output, such that the ADC temperature value and corresponding
  17:main.c        **** *               temperature in Celsius coming from a LM35DZ temperature
  18:main.c        **** *               sensor is transmitted via UART as JSON data script.
  19:main.c        **** *
  20:main.c        **** *******************************************************************************
  21:main.c        **** * Copyright (2018-2020), Cypress Semiconductor Corporation. All rights reserved.
  22:main.c        **** *******************************************************************************
  23:main.c        **** * This software, including source code, documentation and related materials
  24:main.c        **** * (“Software”), is owned by Cypress Semiconductor Corporation or one of its
  25:main.c        **** * subsidiaries (“Cypress”) and is protected by and subject to worldwide patent
  26:main.c        **** * protection (United States and foreign), United States copyright laws and
  27:main.c        **** * international treaty provisions. Therefore, you may use this Software only
  28:main.c        **** * as provided in the license agreement accompanying the software package from
  29:main.c        **** * which you obtained this Software (“EULA”).
  30:main.c        **** *
  31:main.c        **** * If no EULA applies, Cypress hereby grants you a personal, nonexclusive,
  32:main.c        **** * non-transferable license to copy, modify, and compile the Software source
  33:main.c        **** * code solely for use in connection with Cypress’s integrated circuit products.
  34:main.c        **** * Any reproduction, modification, translation, compilation, or representation
  35:main.c        **** * of this Software except as specified above is prohibited without the express
  36:main.c        **** * written permission of Cypress.
  37:main.c        **** *
  38:main.c        **** * Disclaimer: THIS SOFTWARE IS PROVIDED AS-IS, WITH NO WARRANTY OF ANY KIND, 
  39:main.c        **** * EXPRESS OR IMPLIED, INCLUDING, BUT NOT LIMITED TO, NONINFRINGEMENT, IMPLIED 
  40:main.c        **** * WARRANTIES OF MERCHANTABILITY AND FITNESS FOR A PARTICULAR PURPOSE. Cypress 
  41:main.c        **** * reserves the right to make changes to the Software without notice. Cypress 
  42:main.c        **** * does not assume any liability arising out of the application or use of the 
  43:main.c        **** * Software or any product or circuit described in the Software. Cypress does 
  44:main.c        **** * not authorize its products for use in any products where a malfunction or 
  45:main.c        **** * failure of the Cypress product may reasonably be expected to result in 
  46:main.c        **** * significant property damage, injury or death (“High Risk Product”). By 
  47:main.c        **** * including Cypress’s product in a High Risk Product, the manufacturer of such 
  48:main.c        **** * system or application assumes all risk of such use and in doing so agrees to 
  49:main.c        **** * indemnify Cypress against all liability.
ARM GAS  C:\Users\z004c8dn\AppData\Local\Temp\cchlWGvh.s 			page 3


  50:main.c        **** *******************************************************************************/
  51:main.c        **** 
  52:main.c        **** #include <project.h>
  53:main.c        **** #include "stdio.h"
  54:main.c        **** 
  55:main.c        **** /* Project Defines */
  56:main.c        **** #define FALSE  0
  57:main.c        **** #define TRUE   1
  58:main.c        **** #define TRANSMIT_BUFFER_SIZE  50
  59:main.c        **** 
  60:main.c        **** 
  61:main.c        **** /*Global Variables*/
  62:main.c        **** /*used to store the sum of the input over the duration of one second
  63:main.c        **** 64 Bit value that way you can add 16 Bit into it about 2^48 times*/
  64:main.c        **** volatile uint64 gInputSum = 0;
  65:main.c        **** 
  66:main.c        **** volatile uint32 gAverageData = 0;
  67:main.c        **** volatile uint8 gSendAverage = 0; //Flag set every second
  68:main.c        **** 
  69:main.c        **** /*******************************************************************************
  70:main.c        **** * Function Name: main
  71:main.c        **** ********************************************************************************
  72:main.c        **** *
  73:main.c        **** * Summary:
  74:main.c        **** *  main() performs following functions:
  75:main.c        **** *  1: Starts the ADC and UART components.
  76:main.c        **** *  2: Checks for ADC end of conversion.  Stores latest result in output
  77:main.c        **** *     if conversion complete.
  78:main.c        **** *  3: Checks for UART input.
  79:main.c        **** *     On 'C' or 'c' received: transmits the last sample via the UART.
  80:main.c        **** *     On 'S' or 's' received: continuously transmits samples as they are completed.
  81:main.c        **** *     On 'X' or 'x' received: stops continuously transmitting samples.
  82:main.c        **** *     On 'E' or 'e' received: transmits a dummy byte of data.
  83:main.c        **** *
  84:main.c        **** * Parameters:
  85:main.c        **** *  None.
  86:main.c        **** *
  87:main.c        **** * Return:
  88:main.c        **** *  None.
  89:main.c        **** *
  90:main.c        **** *******************************************************************************/
  91:main.c        **** int main()
  92:main.c        **** {
  54              		.loc 1 92 0
  55              		.cfi_startproc
  56              		@ args = 0, pretend = 0, frame = 56
  57              		@ frame_needed = 1, uses_anonymous_args = 0
  58 0000 80B5     		push	{r7, lr}
  59              		.cfi_def_cfa_offset 8
  60              		.cfi_offset 7, -8
  61              		.cfi_offset 14, -4
  62 0002 90B0     		sub	sp, sp, #64
  63              		.cfi_def_cfa_offset 72
  64 0004 02AF     		add	r7, sp, #8
  65              		.cfi_def_cfa 7, 64
  93:main.c        ****     /* Variable to store ADC result */
  94:main.c        ****     uint16 temperatureIntPart;      //stores the integer value of the temperature
ARM GAS  C:\Users\z004c8dn\AppData\Local\Temp\cchlWGvh.s 			page 4


  95:main.c        ****     uint16 temperatureDecimalPart;  //stores the decimal part of the temperature
  96:main.c        ****    
  97:main.c        ****     
  98:main.c        ****     /* Transmit Buffer */
  99:main.c        ****     char TransmitBuffer[TRANSMIT_BUFFER_SIZE];
 100:main.c        ****     
 101:main.c        ****     /* Start the components */
 102:main.c        ****     ADC_DelSig_1_Start();
  66              		.loc 1 102 0
  67 0006 FFF7FEFF 		bl	ADC_DelSig_1_Start
 103:main.c        ****     UART_1_Start();
  68              		.loc 1 103 0
  69 000a FFF7FEFF 		bl	UART_1_Start
 104:main.c        ****     
 105:main.c        ****     isr_eoc_getValue_ClearPending();
  70              		.loc 1 105 0
  71 000e FFF7FEFF 		bl	isr_eoc_getValue_ClearPending
 106:main.c        ****     isr_eoc_getValue_Start();
  72              		.loc 1 106 0
  73 0012 FFF7FEFF 		bl	isr_eoc_getValue_Start
 107:main.c        ****     
 108:main.c        ****     isr_averageData_ClearPending();
  74              		.loc 1 108 0
  75 0016 FFF7FEFF 		bl	isr_averageData_ClearPending
 109:main.c        ****     isr_averageData_Start();
  76              		.loc 1 109 0
  77 001a FFF7FEFF 		bl	isr_averageData_Start
 110:main.c        ****     
 111:main.c        ****     CyGlobalIntEnable
  78              		.loc 1 111 0
  79              		.syntax unified
  80              	@ 111 "main.c" 1
  81 001e 62B6     		CPSIE   i
  82              	@ 0 "" 2
 112:main.c        ****     /* Initialize Variables */
 113:main.c        ****     gSendAverage = FALSE;
  83              		.loc 1 113 0
  84              		.thumb
  85              		.syntax unified
  86 0020 1A4B     		ldr	r3, .L4
  87 0022 0022     		movs	r2, #0
  88 0024 1A70     		strb	r2, [r3]
 114:main.c        ****     
 115:main.c        ****     /* Start the ADC conversion */
 116:main.c        ****     ADC_DelSig_1_StartConvert();
  89              		.loc 1 116 0
  90 0026 FFF7FEFF 		bl	ADC_DelSig_1_StartConvert
 117:main.c        ****     
 118:main.c        ****     /* Send message to verify COM port is connected properly */
 119:main.c        ****     UART_1_PutString("COM Port Open\r\n");
  91              		.loc 1 119 0
  92 002a 1948     		ldr	r0, .L4+4
  93 002c FFF7FEFF 		bl	UART_1_PutString
  94              	.L3:
 120:main.c        ****     
 121:main.c        ****     
 122:main.c        ****     for(;;)
ARM GAS  C:\Users\z004c8dn\AppData\Local\Temp\cchlWGvh.s 			page 5


 123:main.c        ****     {
 124:main.c        ****             if(gSendAverage)
  95              		.loc 1 124 0
  96 0030 164B     		ldr	r3, .L4
  97 0032 1B78     		ldrb	r3, [r3]
  98 0034 DBB2     		uxtb	r3, r3
  99 0036 002B     		cmp	r3, #0
 100 0038 FAD0     		beq	.L3
 125:main.c        ****             {
 126:main.c        ****              /* Format ADC result for transmition */
 127:main.c        ****              CyGlobalIntDisable
 101              		.loc 1 127 0
 102              		.syntax unified
 103              	@ 127 "main.c" 1
 104 003a 72B6     		CPSID   i
 105              	@ 0 "" 2
 128:main.c        ****              temperatureIntPart     = gAverageData / 10;    //drops the decimal part of the tempera
 106              		.loc 1 128 0
 107              		.thumb
 108              		.syntax unified
 109 003c 154B     		ldr	r3, .L4+8
 110 003e 1B68     		ldr	r3, [r3]
 111 0040 154A     		ldr	r2, .L4+12
 112 0042 A2FB0323 		umull	r2, r3, r2, r3
 113 0046 DB08     		lsrs	r3, r3, #3
 114 0048 FB86     		strh	r3, [r7, #54]	@ movhi
 129:main.c        ****              temperatureDecimalPart = gAverageData % 10;    //drops the integer part of the tempera
 115              		.loc 1 129 0
 116 004a 124B     		ldr	r3, .L4+8
 117 004c 1968     		ldr	r1, [r3]
 118 004e 124B     		ldr	r3, .L4+12
 119 0050 A3FB0123 		umull	r2, r3, r3, r1
 120 0054 DA08     		lsrs	r2, r3, #3
 121 0056 1346     		mov	r3, r2
 122 0058 9B00     		lsls	r3, r3, #2
 123 005a 1344     		add	r3, r3, r2
 124 005c 5B00     		lsls	r3, r3, #1
 125 005e CA1A     		subs	r2, r1, r3
 126 0060 1346     		mov	r3, r2	@ movhi
 127 0062 BB86     		strh	r3, [r7, #52]	@ movhi
 130:main.c        ****              sprintf(TransmitBuffer, "{\n\"Voltage [mV]\" : %lu,\r\n \"Temperature [C]\" : %hu.%hu 
 128              		.loc 1 130 0
 129 0064 0B4B     		ldr	r3, .L4+8
 130 0066 1A68     		ldr	r2, [r3]
 131 0068 F98E     		ldrh	r1, [r7, #54]
 132 006a BB8E     		ldrh	r3, [r7, #52]
 133 006c 3846     		mov	r0, r7
 134 006e 0093     		str	r3, [sp]
 135 0070 0B46     		mov	r3, r1
 136 0072 0A49     		ldr	r1, .L4+16
 137 0074 FFF7FEFF 		bl	sprintf
 131:main.c        ****              CyGlobalIntEnable
 138              		.loc 1 131 0
 139              		.syntax unified
 140              	@ 131 "main.c" 1
 141 0078 62B6     		CPSIE   i
 142              	@ 0 "" 2
ARM GAS  C:\Users\z004c8dn\AppData\Local\Temp\cchlWGvh.s 			page 6


 132:main.c        ****              /* Send out the data */
 133:main.c        ****              UART_1_PutString(TransmitBuffer);
 143              		.loc 1 133 0
 144              		.thumb
 145              		.syntax unified
 146 007a 3B46     		mov	r3, r7
 147 007c 1846     		mov	r0, r3
 148 007e FFF7FEFF 		bl	UART_1_PutString
 134:main.c        ****              /* Reset the sendAverage flag */
 135:main.c        ****            
 136:main.c        ****              gSendAverage = FALSE;
 149              		.loc 1 136 0
 150 0082 024B     		ldr	r3, .L4
 151 0084 0022     		movs	r2, #0
 152 0086 1A70     		strb	r2, [r3]
 137:main.c        ****         }        
 138:main.c        ****     }
 153              		.loc 1 138 0
 154 0088 D2E7     		b	.L3
 155              	.L5:
 156 008a 00BF     		.align	2
 157              	.L4:
 158 008c 00000000 		.word	gSendAverage
 159 0090 00000000 		.word	.LC0
 160 0094 00000000 		.word	gAverageData
 161 0098 CDCCCCCC 		.word	-858993459
 162 009c 10000000 		.word	.LC1
 163              		.cfi_endproc
 164              	.LFE64:
 165              		.size	main, .-main
 166              		.text
 167              	.Letext0:
 168              		.file 2 "c:\\program files (x86)\\cypress\\psoc creator\\4.4\\psoc creator\\import\\gnu\\arm\\5.4.
 169              		.file 3 "c:\\program files (x86)\\cypress\\psoc creator\\4.4\\psoc creator\\import\\gnu\\arm\\5.4.
 170              		.file 4 "Generated_Source\\PSoC5/cytypes.h"
 171              		.file 5 "Generated_Source\\PSoC5/core_cm3.h"